target datalayout = "e-m:e-p270:32:32-p271:32:32-p272:64:64-i64:64-i128:128-f80:128-n8:16:32:64-S128"
target triple = "x86_64-pc-linux-gnu"

%class.LIR_Opr = type { i64 }
%class.ValueType = type { ptr, i32, i32 }

@_ZN8FrameMap11rax_oop_oprE = external global %class.LIR_Opr, align 8
@_ZN8FrameMap7rax_oprE = external global %class.LIR_Opr, align 8
@_ZN11LIR_OprFact10illegalOprE = external global %class.LIR_Opr, align 8
@_ZN8FrameMap9long0_oprE = external global %class.LIR_Opr, align 8
@_ZN8FrameMap14xmm0_float_oprE = external global %class.LIR_Opr, align 8
@_ZN8FrameMap15xmm0_double_oprE = external global %class.LIR_Opr, align 8
@g_assert_poison = external global ptr, align 8
@.str = private unnamed_addr constant [44 x i8] c"src/hotspot/cpu/x86/c1_LIRGenerator_x86.cpp\00", align 1

; Function Attrs: mustprogress nounwind uwtable
define linkonce_odr hidden noundef i32 @_ZNK9ValueType3tagEv(ptr noundef nonnull align 8 dereferenceable(16) %0) #1 comdat align 2 {
  %2 = alloca ptr, align 8
  store ptr %0, ptr %2, align 8
  %3 = load ptr, ptr %2, align 8
  %4 = getelementptr inbounds %class.ValueType, ptr %3, i32 0, i32 2
  %5 = load i32, ptr %4, align 4
  ret i32 %5
}

; Function Attrs: mustprogress nounwind uwtable
define linkonce_odr hidden void @_ZN7LIR_OprC2Ev(ptr noundef nonnull align 8 dereferenceable(8) %0) unnamed_addr #1 comdat align 2 {
  %2 = alloca ptr, align 8
  store ptr %0, ptr %2, align 8
  %3 = load ptr, ptr %2, align 8
  %4 = getelementptr inbounds %class.LIR_Opr, ptr %3, i32 0, i32 0
  store i64 0, ptr %4, align 8
  ret void
}

; Function Attrs: mustprogress nounwind uwtable
define hidden i64 @_ZN12LIRGenerator19result_register_forEP9ValueTypeb(ptr noundef %0, i1 noundef zeroext %1) #1 align 2 {
  %3 = alloca %class.LIR_Opr, align 8
  %4 = alloca ptr, align 8
  %5 = alloca i8, align 1
  %6 = alloca %class.LIR_Opr, align 8
  store ptr %0, ptr %4, align 8
  %7 = zext i1 %1 to i8
  store i8 %7, ptr %5, align 1
  call void @_ZN7LIR_OprC2Ev(ptr noundef nonnull align 8 dereferenceable(8) %6)
  %8 = load ptr, ptr %4, align 8
  %9 = call noundef i32 @_ZNK9ValueType3tagEv(ptr noundef nonnull align 8 dereferenceable(16) %8)
  switch i32 %9, label %16 [
    i32 0, label %10
    i32 4, label %11
    i32 1, label %12
    i32 2, label %13
    i32 3, label %14
    i32 5, label %15
  ]

10:                                               ; preds = %2
  call void @llvm.memcpy.p0.p0.i64(ptr align 8 %6, ptr align 8 @_ZN8FrameMap7rax_oprE, i64 8, i1 false)
  br label %20

11:                                               ; preds = %2
  call void @llvm.memcpy.p0.p0.i64(ptr align 8 %6, ptr align 8 @_ZN8FrameMap11rax_oop_oprE, i64 8, i1 false)
  br label %20

12:                                               ; preds = %2
  call void @llvm.memcpy.p0.p0.i64(ptr align 8 %6, ptr align 8 @_ZN8FrameMap9long0_oprE, i64 8, i1 false)
  br label %20

13:                                               ; preds = %2
  call void @llvm.memcpy.p0.p0.i64(ptr align 8 %6, ptr align 8 @_ZN8FrameMap14xmm0_float_oprE, i64 8, i1 false)
  br label %20

14:                                               ; preds = %2
  call void @llvm.memcpy.p0.p0.i64(ptr align 8 %6, ptr align 8 @_ZN8FrameMap15xmm0_double_oprE, i64 8, i1 false)
  br label %20

15:                                               ; preds = %2
  br label %16

16:                                               ; preds = %15, %2
  br label %17

17:                                               ; preds = %16
  %18 = load ptr, ptr @g_assert_poison, align 8
  store i8 88, ptr %18, align 1
  call void @_Z28report_should_not_reach_herePKci(ptr noundef @.str, i32 noundef 104) #7
  unreachable

19:                                               ; No predecessors!
  call void @llvm.memcpy.p0.p0.i64(ptr align 8 %3, ptr align 8 @_ZN11LIR_OprFact10illegalOprE, i64 8, i1 false)
  br label %21

20:                                               ; preds = %14, %13, %12, %11, %10
  call void @llvm.memcpy.p0.p0.i64(ptr align 8 %3, ptr align 8 %6, i64 8, i1 false)
  br label %21

21:                                               ; preds = %20, %19
  %22 = getelementptr inbounds %class.LIR_Opr, ptr %3, i32 0, i32 0
  %23 = load i64, ptr %22, align 8
  ret i64 %23
}