; Function Attrs: mustprogress nounwind uwtable
define hidden i64 @_ZN12LIRGenerator19result_register_forEP9ValueTypeb(ptr nocapture noundef readonly %0, i1 noundef zeroext %1) local_unnamed_addr #0 align 2 {
  %3 = getelementptr inbounds i8, ptr %0, i64 12
  %4 = load i32, ptr %3, align 4
  %5 = icmp ult i32 %4, 5
  br i1 %5, label %switch.lookup, label %6

6:                                                ; preds = %2
  %7 = load ptr, ptr @g_assert_poison, align 8
  store i8 88, ptr %7, align 1
  tail call void @_Z28report_should_not_reach_herePKci(ptr noundef nonnull @.str, i32 noundef 104) #10
  unreachable

switch.lookup:                                    ; preds = %2
  %8 = zext nneg i32 %4 to i64
  %switch.gep = getelementptr inbounds [5 x ptr], ptr @switch.table._ZN12LIRGenerator16do_NewMultiArrayEP13NewMultiArray, i64 0, i64 %8
  %switch.load = load ptr, ptr %switch.gep, align 8
  %.sroa.0.0 = load i64, ptr %switch.load, align 8
  ret i64 %.sroa.0.0
}